target datalayout = "e-m:e-p270:32:32-p271:32:32-p272:64:64-i64:64-i128:128-f80:128-n8:16:32:64-S128"
target triple = "x86_64-unknown-linux-gnu"

%class.anon = type { i8 }

@_ZZN4node6crypto7NodeBIO9GetMethodEvE6method = internal global ptr null, align 8
@_ZGVZN4node6crypto7NodeBIO9GetMethodEvE6method = internal global i64 0, align 8

; Function Attrs: mustprogress nounwind uwtable
define dso_local noundef ptr @_ZN4node6crypto7NodeBIO9GetMethodEv() #4 align 2 {
entry:
  %ref.tmp = alloca %class.anon, align 1
  %0 = load atomic i8, ptr @_ZGVZN4node6crypto7NodeBIO9GetMethodEvE6method acquire, align 8
  %guard.uninitialized = icmp eq i8 %0, 0
  br i1 %guard.uninitialized, label %init.check, label %init.end, !prof !5

init.check:                                       ; preds = %entry
  %1 = call i32 @__cxa_guard_acquire(ptr @_ZGVZN4node6crypto7NodeBIO9GetMethodEvE6method) #3
  %tobool = icmp ne i32 %1, 0
  br i1 %tobool, label %init, label %init.end

init:                                             ; preds = %init.check
  %call = call noundef ptr @"_ZZN4node6crypto7NodeBIO9GetMethodEvENK3$_0clEv"(ptr noundef nonnull align 1 dereferenceable(1) %ref.tmp)
  store ptr %call, ptr @_ZZN4node6crypto7NodeBIO9GetMethodEvE6method, align 8
  call void @__cxa_guard_release(ptr @_ZGVZN4node6crypto7NodeBIO9GetMethodEvE6method) #3
  br label %init.end

init.end:                                         ; preds = %init, %init.check, %entry
  %2 = load ptr, ptr @_ZZN4node6crypto7NodeBIO9GetMethodEvE6method, align 8
  ret ptr %2
}