; Function Attrs: mustprogress nounwind uwtable
define dso_local noundef ptr @_ZN4node6crypto7NodeBIO9GetMethodEv() local_unnamed_addr #3 align 2 {
entry:
  %0 = load atomic i8, ptr @_ZGVZN4node6crypto7NodeBIO9GetMethodEvE6method acquire, align 8
  %guard.uninitialized = icmp eq i8 %0, 0
  br i1 %guard.uninitialized, label %init.check, label %init.end, !prof !5

init.check:                                       ; preds = %entry
  %1 = tail call i32 @__cxa_guard_acquire(ptr nonnull @_ZGVZN4node6crypto7NodeBIO9GetMethodEvE6method) #16
  %tobool.not = icmp eq i32 %1, 0
  br i1 %tobool.not, label %init.end, label %init

init:                                             ; preds = %init.check
  %call = tail call fastcc noundef ptr @"_ZZN4node6crypto7NodeBIO9GetMethodEvENK3$_0clEv"()
  store ptr %call, ptr @_ZZN4node6crypto7NodeBIO9GetMethodEvE6method, align 8
  tail call void @__cxa_guard_release(ptr nonnull @_ZGVZN4node6crypto7NodeBIO9GetMethodEvE6method) #16
  br label %init.end

init.end:                                         ; preds = %init, %init.check, %entry
  %2 = load ptr, ptr @_ZZN4node6crypto7NodeBIO9GetMethodEvE6method, align 8
  ret ptr %2
}